target datalayout = "e-m:e-p270:32:32-p271:32:32-p272:64:64-i64:64-i128:128-f80:128-n8:16:32:64-S128"
target triple = "x86_64-pc-linux-gnu"

@l_Lean_PrettyPrinter_Parenthesizer_term_parenthesizer_wrapParens___closed__1 = internal global ptr null, align 8
@l_Lean_PrettyPrinter_Parenthesizer_term_parenthesizer_wrapParens___closed__5 = internal global ptr null, align 8
@l_Lean_PrettyPrinter_Parenthesizer_term_parenthesizer_wrapParens___closed__6 = internal global ptr null, align 8
@l_Lean_PrettyPrinter_Parenthesizer_term_parenthesizer_wrapParens___closed__7 = internal global ptr null, align 8

; Function Attrs: inlinehint nounwind uwtable
define internal ptr @lean_box(i64 noundef %0) #0 {
  %2 = alloca i64, align 8
  store i64 %0, ptr %2, align 8, !tbaa !8
  %3 = load i64, ptr %2, align 8, !tbaa !8
  %4 = shl i64 %3, 1
  %5 = or i64 %4, 1
  %6 = inttoptr i64 %5 to ptr
  ret ptr %6
}

; Function Attrs: nounwind uwtable
define ptr @l_Lean_PrettyPrinter_Parenthesizer_term_parenthesizer_wrapParens(ptr noundef %0) #2 {
  %2 = alloca ptr, align 8
  %3 = alloca i8, align 1
  %4 = alloca ptr, align 8
  %5 = alloca ptr, align 8
  %6 = alloca ptr, align 8
  %7 = alloca ptr, align 8
  %8 = alloca ptr, align 8
  %9 = alloca ptr, align 8
  %10 = alloca ptr, align 8
  %11 = alloca ptr, align 8
  %12 = alloca ptr, align 8
  store ptr %0, ptr %2, align 8, !tbaa !4
  br label %13

13:                                               ; preds = %1
  call void @llvm.lifetime.start.p0(i64 1, ptr %3) #8
  call void @llvm.lifetime.start.p0(i64 8, ptr %4) #8
  call void @llvm.lifetime.start.p0(i64 8, ptr %5) #8
  call void @llvm.lifetime.start.p0(i64 8, ptr %6) #8
  call void @llvm.lifetime.start.p0(i64 8, ptr %7) #8
  call void @llvm.lifetime.start.p0(i64 8, ptr %8) #8
  call void @llvm.lifetime.start.p0(i64 8, ptr %9) #8
  call void @llvm.lifetime.start.p0(i64 8, ptr %10) #8
  call void @llvm.lifetime.start.p0(i64 8, ptr %11) #8
  call void @llvm.lifetime.start.p0(i64 8, ptr %12) #8
  store i8 0, ptr %3, align 1, !tbaa !10
  %14 = load ptr, ptr %2, align 8, !tbaa !4
  %15 = load i8, ptr %3, align 1, !tbaa !10
  %16 = call ptr @l_Lean_SourceInfo_fromRef(ptr noundef %14, i8 noundef zeroext %15)
  store ptr %16, ptr %4, align 8, !tbaa !4
  %17 = call ptr @lean_box(i64 noundef 2)
  store ptr %17, ptr %5, align 8, !tbaa !4
  %18 = load ptr, ptr %5, align 8, !tbaa !4
  %19 = load ptr, ptr %2, align 8, !tbaa !4
  %20 = call ptr @l_Lean_Syntax_setInfo(ptr noundef %18, ptr noundef %19)
  store ptr %20, ptr %6, align 8, !tbaa !4
  %21 = load ptr, ptr @l_Lean_PrettyPrinter_Parenthesizer_term_parenthesizer_wrapParens___closed__1, align 8, !tbaa !4
  store ptr %21, ptr %7, align 8, !tbaa !4
  %22 = load ptr, ptr @l_Lean_PrettyPrinter_Parenthesizer_term_parenthesizer_wrapParens___closed__5, align 8, !tbaa !4
  store ptr %22, ptr %8, align 8, !tbaa !4
  %23 = load ptr, ptr @l_Lean_PrettyPrinter_Parenthesizer_term_parenthesizer_wrapParens___closed__6, align 8, !tbaa !4
  store ptr %23, ptr %9, align 8, !tbaa !4
  %24 = load ptr, ptr @l_Lean_PrettyPrinter_Parenthesizer_term_parenthesizer_wrapParens___closed__7, align 8, !tbaa !4
  store ptr %24, ptr %10, align 8, !tbaa !4
  %25 = load ptr, ptr %7, align 8, !tbaa !4
  %26 = load ptr, ptr %8, align 8, !tbaa !4
  %27 = load ptr, ptr %9, align 8, !tbaa !4
  %28 = load ptr, ptr %6, align 8, !tbaa !4
  %29 = load ptr, ptr %10, align 8, !tbaa !4
  %30 = call ptr @l_Lean_Syntax_node3(ptr noundef %25, ptr noundef %26, ptr noundef %27, ptr noundef %28, ptr noundef %29)
  store ptr %30, ptr %11, align 8, !tbaa !4
  %31 = load ptr, ptr %4, align 8, !tbaa !4
  %32 = load ptr, ptr %11, align 8, !tbaa !4
  %33 = call ptr @l_Lean_Syntax_setInfo(ptr noundef %31, ptr noundef %32)
  store ptr %33, ptr %12, align 8, !tbaa !4
  %34 = load ptr, ptr %12, align 8, !tbaa !4
  call void @llvm.lifetime.end.p0(i64 8, ptr %12) #8
  call void @llvm.lifetime.end.p0(i64 8, ptr %11) #8
  call void @llvm.lifetime.end.p0(i64 8, ptr %10) #8
  call void @llvm.lifetime.end.p0(i64 8, ptr %9) #8
  call void @llvm.lifetime.end.p0(i64 8, ptr %8) #8
  call void @llvm.lifetime.end.p0(i64 8, ptr %7) #8
  call void @llvm.lifetime.end.p0(i64 8, ptr %6) #8
  call void @llvm.lifetime.end.p0(i64 8, ptr %5) #8
  call void @llvm.lifetime.end.p0(i64 8, ptr %4) #8
  call void @llvm.lifetime.end.p0(i64 1, ptr %3) #8
  ret ptr %34
}