; Function Attrs: nounwind uwtable
define ptr @l_Lean_PrettyPrinter_Parenthesizer_term_parenthesizer_wrapParens(ptr noundef %0) #0 {
  %2 = tail call ptr @l_Lean_SourceInfo_fromRef(ptr noundef %0, i8 noundef zeroext 0) #6
  %3 = tail call ptr @l_Lean_Syntax_setInfo(ptr noundef nonnull inttoptr (i64 5 to ptr), ptr noundef %0) #6
  %4 = load ptr, ptr @l_Lean_PrettyPrinter_Parenthesizer_term_parenthesizer_wrapParens___closed__1, align 8, !tbaa !4
  %5 = load ptr, ptr @l_Lean_PrettyPrinter_Parenthesizer_term_parenthesizer_wrapParens___closed__5, align 8, !tbaa !4
  %6 = load ptr, ptr @l_Lean_PrettyPrinter_Parenthesizer_term_parenthesizer_wrapParens___closed__6, align 8, !tbaa !4
  %7 = load ptr, ptr @l_Lean_PrettyPrinter_Parenthesizer_term_parenthesizer_wrapParens___closed__7, align 8, !tbaa !4
  %8 = tail call ptr @l_Lean_Syntax_node3(ptr noundef %4, ptr noundef %5, ptr noundef %6, ptr noundef %3, ptr noundef %7) #6
  %9 = tail call ptr @l_Lean_Syntax_setInfo(ptr noundef %2, ptr noundef %8) #6
  ret ptr %9
}